; ModuleID = 'bench/linux/original/i915_utils.ll'
source_filename = "bench/linux/original/i915_utils.ll"
target datalayout = "e-m:e-p270:32:32-p271:32:32-p272:64:64-i64:64-i128:128-f80:128-n8:16:32:64-S128"
target triple = "x86_64-unknown-linux-gnu"

%struct.va_format = type { ptr, ptr }
%struct.__va_list_tag = type { i32, i32, ptr, ptr }

@__i915_printk.shown_bug_once = internal unnamed_addr global i1 false, align 1
@.str.2 = private unnamed_addr constant [4 x i8] c"%pV\00", align 1
@.str.3 = private unnamed_addr constant [14 x i8] c"[drm:%ps] %pV\00", align 1
@.str.4 = private unnamed_addr constant [3 x i8] c"%s\00", align 1
@.str.5 = private unnamed_addr constant [120 x i8] c"Please file a bug on drm/i915; see https://drm.pages.freedesktop.org/intel-docs/how-to-file-i915-bugs.html for details.\00", align 1
@.str.6 = private unnamed_addr constant [3 x i8] c"\015\00", align 1
@.str.7 = private unnamed_addr constant [23 x i8] c"CI tainted:%#x by %pS\0A\00", align 1
@jiffies = external dso_local global i64, section ".data..cacheline_aligned", align 64
@__drm_debug = external dso_local local_unnamed_addr global i64, align 8
@x86_hyper_type = external dso_local local_unnamed_addr global i32, align 4

; Function Attrs: fn_ret_thunk_extern nounwind null_pointer_is_valid
define dso_local void @__i915_printk(ptr nocapture noundef readonly %0, ptr noundef %1, ptr noundef %2, ...) local_unnamed_addr #0 align 16 {
  %4 = alloca %struct.va_format, align 8
  %5 = alloca [1 x %struct.__va_list_tag], align 16
  %6 = getelementptr inbounds i8, ptr %0, i64 8
  %7 = load ptr, ptr %6, align 8
  %8 = getelementptr i8, ptr %1, i64 1
  %9 = load i8, ptr %8, align 1
  %10 = icmp eq i8 %9, 55
  call void @llvm.lifetime.start.p0(i64 16, ptr nonnull %4) #9
  call void @llvm.memset.p0.i64(ptr noundef nonnull align 8 dereferenceable(16) %4, i8 0, i64 16, i1 false), !annotation !5
  call void @llvm.lifetime.start.p0(i64 24, ptr nonnull %5) #9
  call void @llvm.memset.p0.i64(ptr noundef nonnull align 16 dereferenceable(24) %5, i8 0, i64 24, i1 false), !annotation !5
  br i1 %10, label %11, label %16

11:                                               ; preds = %3
  %12 = load i64, ptr @__drm_debug, align 8
  %13 = and i64 %12, 2
  %14 = icmp eq i64 %13, 0
  br i1 %14, label %28, label %.thread

.thread:                                          ; preds = %11
  call void @llvm.va_start(ptr nonnull %5)
  store ptr %2, ptr %4, align 8
  %15 = getelementptr inbounds i8, ptr %4, i64 8
  store ptr %5, ptr %15, align 8
  br label %19

16:                                               ; preds = %3
  %17 = icmp ult i8 %9, 52
  call void @llvm.va_start(ptr nonnull %5)
  store ptr %2, ptr %4, align 8
  %18 = getelementptr inbounds i8, ptr %4, i64 8
  store ptr %5, ptr %18, align 8
  br i1 %17, label %21, label %19

19:                                               ; preds = %16, %.thread
  %20 = call ptr @llvm.returnaddress(i32 0)
  call void (ptr, ptr, ptr, ...) @_dev_printk(ptr noundef %1, ptr noundef %7, ptr noundef nonnull @.str.3, ptr noundef %20, ptr noundef nonnull %4) #10
  call void @llvm.va_end(ptr nonnull %5)
  br label %28

21:                                               ; preds = %16
  call void (ptr, ptr, ptr, ...) @_dev_printk(ptr noundef %1, ptr noundef %7, ptr noundef nonnull @.str.2, ptr noundef nonnull %4) #10
  call void @llvm.va_end(ptr nonnull %5)
  %22 = load i1, ptr @__i915_printk.shown_bug_once, align 1
  br i1 %22, label %28, label %23

23:                                               ; preds = %21
  %24 = call i32 @test_taint(i32 noundef 6) #9
  %25 = icmp eq i32 %24, 0
  br i1 %25, label %26, label %27

26:                                               ; preds = %23
  call void (ptr, ptr, ...) @_dev_notice(ptr noundef %7, ptr noundef nonnull @.str.4, ptr noundef nonnull @.str.5) #10
  br label %27

27:                                               ; preds = %26, %23
  store i1 true, ptr @__i915_printk.shown_bug_once, align 1
  br label %28

28:                                               ; preds = %19, %27, %21, %11
  call void @llvm.lifetime.end.p0(i64 24, ptr nonnull %5) #9
  call void @llvm.lifetime.end.p0(i64 16, ptr nonnull %4) #9
  ret void
}

; Function Attrs: mustprogress nocallback nofree nosync nounwind willreturn memory(argmem: readwrite)
declare void @llvm.lifetime.start.p0(i64 immarg, ptr nocapture) #1

; Function Attrs: mustprogress nocallback nofree nounwind willreturn memory(argmem: write)
declare void @llvm.memset.p0.i64(ptr nocapture writeonly, i8, i64, i1 immarg) #2

; Function Attrs: mustprogress nocallback nofree nosync nounwind willreturn
declare void @llvm.va_start(ptr) #3

; Function Attrs: cold null_pointer_is_valid
declare dso_local void @_dev_printk(ptr noundef, ptr noundef, ptr noundef, ...) local_unnamed_addr #4

; Function Attrs: mustprogress nocallback nofree nosync nounwind willreturn memory(none)
declare ptr @llvm.returnaddress(i32 immarg) #5

; Function Attrs: mustprogress nocallback nofree nosync nounwind willreturn
declare void @llvm.va_end(ptr) #3

; Function Attrs: null_pointer_is_valid
declare dso_local i32 @test_taint(i32 noundef) local_unnamed_addr #6

; Function Attrs: cold null_pointer_is_valid
declare dso_local void @_dev_notice(ptr noundef, ptr noundef, ...) local_unnamed_addr #4

; Function Attrs: mustprogress nocallback nofree nosync nounwind willreturn memory(argmem: readwrite)
declare void @llvm.lifetime.end.p0(i64 immarg, ptr nocapture) #1

; Function Attrs: fn_ret_thunk_extern nounwind null_pointer_is_valid
define dso_local void @add_taint_for_CI(ptr nocapture noundef readonly %0, i32 noundef %1) local_unnamed_addr #0 align 16 {
  %3 = tail call ptr @llvm.returnaddress(i32 0)
  tail call void (ptr, ptr, ptr, ...) @__i915_printk(ptr noundef %0, ptr noundef nonnull @.str.6, ptr noundef nonnull @.str.7, i32 noundef %1, ptr noundef %3)
  tail call void @add_taint(i32 noundef %1, i32 noundef 0) #9
  ret void
}

; Function Attrs: fn_ret_thunk_extern nounwind null_pointer_is_valid
define dso_local void @cancel_timer(ptr noundef %0) local_unnamed_addr #0 align 16 {
  %2 = getelementptr inbounds i8, ptr %0, i64 16
  %3 = load volatile i64, ptr %2, align 8
  %4 = icmp eq i64 %3, 0
  br i1 %4, label %7, label %5

5:                                                ; preds = %1
  %6 = tail call i32 @timer_delete(ptr noundef %0) #9
  store volatile i64 0, ptr %2, align 8
  br label %7

7:                                                ; preds = %5, %1
  ret void
}

; Function Attrs: fn_ret_thunk_extern nounwind null_pointer_is_valid
define dso_local void @set_timer_ms(ptr noundef %0, i64 noundef %1) local_unnamed_addr #0 align 16 {
  %3 = icmp eq i64 %1, 0
  br i1 %3, label %4, label %10

4:                                                ; preds = %2
  %5 = getelementptr inbounds i8, ptr %0, i64 16
  %6 = load volatile i64, ptr %5, align 8
  %7 = icmp eq i64 %6, 0
  br i1 %7, label %17, label %8

8:                                                ; preds = %4
  %9 = tail call i32 @timer_delete(ptr noundef %0) #9
  store volatile i64 0, ptr %5, align 8
  br label %17

10:                                               ; preds = %2
  %11 = trunc i64 %1 to i32
  %12 = tail call i64 @__msecs_to_jiffies(i32 noundef %11) #9
  tail call void asm sideeffect "", "~{memory},~{dirflag},~{fpsr},~{flags}"() #9, !srcloc !6
  %13 = load volatile i64, ptr @jiffies, align 64
  %14 = add i64 %13, %12
  %15 = tail call i64 @llvm.umax.i64(i64 %14, i64 1)
  %16 = tail call i32 @mod_timer(ptr noundef %0, i64 noundef %15) #9
  br label %17

17:                                               ; preds = %10, %8, %4
  ret void
}

; Function Attrs: null_pointer_is_valid
declare dso_local i32 @mod_timer(ptr noundef, i64 noundef) local_unnamed_addr #6

; Function Attrs: fn_ret_thunk_extern mustprogress nofree norecurse nosync nounwind null_pointer_is_valid willreturn memory(read, inaccessiblemem: none)
define dso_local zeroext i1 @i915_vtd_active(ptr nocapture noundef readonly %0) local_unnamed_addr #7 align 16 {
  %2 = getelementptr inbounds i8, ptr %0, i64 8
  %3 = load ptr, ptr %2, align 8
  %4 = getelementptr inbounds i8, ptr %3, i64 696
  %5 = load ptr, ptr %4, align 8
  %6 = icmp ne ptr %5, null
  %7 = load i32, ptr @x86_hyper_type, align 4
  %8 = icmp ne i32 %7, 0
  %9 = select i1 %6, i1 true, i1 %8
  ret i1 %9
}

; Function Attrs: null_pointer_is_valid
declare dso_local void @add_taint(i32 noundef, i32 noundef) local_unnamed_addr #6

; Function Attrs: null_pointer_is_valid
declare dso_local i32 @timer_delete(ptr noundef) local_unnamed_addr #6

; Function Attrs: null_pointer_is_valid
declare dso_local i64 @__msecs_to_jiffies(i32 noundef) local_unnamed_addr #6

; Function Attrs: mustprogress nocallback nofree nosync nounwind speculatable willreturn memory(none)
declare i64 @llvm.umax.i64(i64, i64) #8


!llvm.module.flags = !{!0, !1, !2, !3, !4}

!0 = !{i32 1, !"wchar_size", i32 2}
!1 = !{i32 8, !"cf-protection-branch", i32 1}
!2 = !{i32 4, !"function_return_thunk_extern", i32 1}
!3 = !{i32 4, !"indirect_branch_cs_prefix", i32 1}
!4 = !{i32 4, !"SkipRaxSetup", i32 1}
!5 = !{!"auto-init"}
!6 = !{i64 2158168075}
